; Function Attrs: nounwind uwtable
define internal ptr @odict_iter(ptr noundef %0) #0 {
  %2 = tail call ptr @_PyObject_GC_New(ptr noundef nonnull @PyODictIter_Type) #8
  %3 = icmp eq ptr %2, null
  br i1 %3, label %odictiter_new.exit, label %4

4:                                                ; preds = %1
  %5 = getelementptr inbounds nuw i8, ptr %2, i64 56
  store ptr null, ptr %5, align 8, !tbaa !56
  %6 = getelementptr inbounds nuw i8, ptr %2, i64 16
  store i32 2, ptr %6, align 8, !tbaa !59
  %.in.i = getelementptr inbounds nuw i8, ptr %0, i64 48
  %7 = load ptr, ptr %.in.i, align 8, !tbaa !50
  %.not25.i = icmp eq ptr %7, null
  br i1 %.not25.i, label %_Py_NewRef.exit.i, label %8

8:                                                ; preds = %4
  %9 = load ptr, ptr %7, align 8, !tbaa !44
  %10 = load i32, ptr %9, align 8, !tbaa !38
  %11 = icmp slt i32 %10, 0
  br i1 %11, label %_Py_NewRef.exit.i, label %12

12:                                               ; preds = %8
  %13 = add nuw i32 %10, 1
  store i32 %13, ptr %9, align 8, !tbaa !38
  br label %_Py_NewRef.exit.i

_Py_NewRef.exit.i:                                ; preds = %12, %8, %4
  %14 = phi ptr [ null, %4 ], [ %9, %8 ], [ %9, %12 ]
  %15 = getelementptr inbounds nuw i8, ptr %2, i64 48
  store ptr %14, ptr %15, align 8, !tbaa !60
  %16 = getelementptr i8, ptr %0, i64 16
  %.val.i = load i64, ptr %16, align 8, !tbaa !49
  %17 = getelementptr inbounds nuw i8, ptr %2, i64 32
  store i64 %.val.i, ptr %17, align 8, !tbaa !61
  %18 = getelementptr inbounds nuw i8, ptr %0, i64 88
  %19 = load i64, ptr %18, align 8, !tbaa !47
  %20 = getelementptr inbounds nuw i8, ptr %2, i64 40
  store i64 %19, ptr %20, align 8, !tbaa !62
  %21 = load i32, ptr %0, align 8, !tbaa !38
  %22 = icmp slt i32 %21, 0
  br i1 %22, label %_Py_NewRef.exit26.i, label %23

23:                                               ; preds = %_Py_NewRef.exit.i
  %24 = add nuw i32 %21, 1
  store i32 %24, ptr %0, align 8, !tbaa !38
  br label %_Py_NewRef.exit26.i

_Py_NewRef.exit26.i:                              ; preds = %23, %_Py_NewRef.exit.i
  %25 = getelementptr inbounds nuw i8, ptr %2, i64 24
  store ptr %0, ptr %25, align 8, !tbaa !63
  %26 = getelementptr i8, ptr %2, i64 -16
  %27 = tail call align 8 ptr @llvm.threadlocal.address.p0(ptr align 8 @_Py_tss_tstate)
  %28 = load ptr, ptr %27, align 8, !tbaa !64
  %29 = getelementptr inbounds nuw i8, ptr %28, i64 16
  %30 = load ptr, ptr %29, align 8, !tbaa !65
  %31 = getelementptr inbounds nuw i8, ptr %30, i64 7424
  %32 = getelementptr inbounds nuw i8, ptr %30, i64 7432
  %33 = load i64, ptr %32, align 8, !tbaa !66
  %34 = inttoptr i64 %33 to ptr
  %35 = ptrtoint ptr %26 to i64
  %36 = load i64, ptr %34, align 8, !tbaa !68
  %37 = and i64 %36, 3
  %38 = or i64 %37, %35
  store i64 %38, ptr %34, align 8, !tbaa !68
  %39 = getelementptr i8, ptr %2, i64 -8
  %40 = load i64, ptr %39, align 8, !tbaa !66
  %41 = and i64 %40, 3
  %42 = or i64 %41, %33
  store i64 %42, ptr %39, align 8, !tbaa !66
  %43 = getelementptr inbounds nuw i8, ptr %30, i64 7632
  %44 = load i32, ptr %43, align 8, !tbaa !69
  %45 = xor i32 %44, 1
  %46 = sext i32 %45 to i64
  %47 = ptrtoint ptr %31 to i64
  %48 = or i64 %46, %47
  store i64 %48, ptr %26, align 8, !tbaa !68
  store i64 %35, ptr %32, align 8, !tbaa !66
  br label %odictiter_new.exit

odictiter_new.exit:                               ; preds = %1, %_Py_NewRef.exit26.i
  ret ptr %2
}